; Function Attrs: nounwind uwtable
define dso_local void @StartRestoreLOs(ptr noundef %0) local_unnamed_addr #0 {
  %2 = getelementptr inbounds nuw i8, ptr %0, i64 8
  %3 = load ptr, ptr %2, align 8
  %4 = getelementptr inbounds nuw i8, ptr %3, i64 364
  %5 = load i8, ptr %4, align 4, !range !4, !noundef !5
  %6 = trunc nuw i8 %5 to i1
  br i1 %6, label %17, label %7

7:                                                ; preds = %1
  %8 = getelementptr inbounds nuw i8, ptr %3, i64 368
  %9 = load i32, ptr %8, align 8
  %10 = icmp sgt i32 %9, 0
  br i1 %10, label %17, label %11

11:                                               ; preds = %7
  %12 = getelementptr inbounds nuw i8, ptr %0, i64 440
  %13 = load ptr, ptr %12, align 8
  %.not = icmp eq ptr %13, null
  br i1 %.not, label %15, label %14

14:                                               ; preds = %11
  tail call void @StartTransaction(ptr noundef nonnull %0) #22
  br label %17

15:                                               ; preds = %11
  %16 = tail call i32 (ptr, ptr, ...) @ahprintf(ptr noundef nonnull %0, ptr noundef nonnull @.str.14)
  br label %17

17:                                               ; preds = %14, %15, %7, %1
  %18 = getelementptr inbounds nuw i8, ptr %0, i64 476
  store i32 0, ptr %18, align 4
  ret void
}